target datalayout = "e-m:e-p270:32:32-p271:32:32-p272:64:64-i64:64-i128:128-f80:128-n8:16:32:64-S128"
target triple = "x86_64-pc-linux-gnu"

%struct._value_string_ext = type { ptr, i32, i32, ptr, ptr }
%struct.expert_field = type { i32, i32 }
%struct.ieee80211_tagged_field_data = type { i32, ptr, i8, ptr, ptr }

@ieee80211_supported_rates_vals_ext = global %struct._value_string_ext { ptr @_try_val_to_str_ext_init, i32 0, i32 46, ptr @ieee80211_supported_rates_vals, ptr @.str.221 }, align 8
@ei_ieee80211_tag_length = internal global %struct.expert_field zeroinitializer, align 4
@hf_ieee80211_tag_ext_supp_rates = internal global i32 0, align 4
@.str.9913 = private unnamed_addr constant [48 x i8] c"Tag length %u too short, must be greater than 0\00", align 1
@.str.9914 = private unnamed_addr constant [5 x i8] c" %s,\00", align 1
@.str.9915 = private unnamed_addr constant [13 x i8] c"Unknown Rate\00", align 1
@.str.9916 = private unnamed_addr constant [12 x i8] c" [Mbit/sec]\00", align 1

; Function Attrs: null_pointer_is_valid sspstrong uwtable
define internal i32 @ieee80211_tag_ext_supp_rates(ptr noundef %0, ptr noundef %1, ptr noundef %2, ptr noundef %3) #1 {
  %5 = alloca i32, align 4
  %6 = alloca ptr, align 8
  %7 = alloca ptr, align 8
  %8 = alloca ptr, align 8
  %9 = alloca ptr, align 8
  %10 = alloca i32, align 4
  %11 = alloca ptr, align 8
  %12 = alloca i32, align 4
  %13 = alloca i32, align 4
  store ptr %0, ptr %6, align 8
  store ptr %1, ptr %7, align 8
  store ptr %2, ptr %8, align 8
  store ptr %3, ptr %9, align 8
  call void @llvm.lifetime.start.p0(i64 4, ptr %10) #19
  %14 = load ptr, ptr %6, align 8
  %15 = call i32 @tvb_reported_length(ptr noundef %14)
  store i32 %15, ptr %10, align 4
  call void @llvm.lifetime.start.p0(i64 8, ptr %11) #19
  %16 = load ptr, ptr %9, align 8
  store ptr %16, ptr %11, align 8
  call void @llvm.lifetime.start.p0(i64 4, ptr %12) #19
  store i32 0, ptr %12, align 4
  %17 = load i32, ptr %10, align 4
  %18 = icmp slt i32 %17, 1
  br i1 %18, label %19, label %28

19:                                               ; preds = %4
  %20 = load ptr, ptr %7, align 8
  %21 = load ptr, ptr %11, align 8
  %22 = getelementptr inbounds nuw %struct.ieee80211_tagged_field_data, ptr %21, i32 0, i32 4
  %23 = load ptr, ptr %22, align 8
  %24 = load i32, ptr %10, align 4
  %25 = call ptr (ptr, ptr, ptr, ptr, ...) @expert_add_info_format(ptr noundef %20, ptr noundef %23, ptr noundef @ei_ieee80211_tag_length, ptr noundef @.str.9913, i32 noundef %24)
  %26 = load ptr, ptr %6, align 8
  %27 = call i32 @tvb_captured_length(ptr noundef %26)
  store i32 %27, ptr %5, align 4
  store i32 1, ptr %13, align 4
  br label %55

28:                                               ; preds = %4
  br label %29

29:                                               ; preds = %33, %28
  %30 = load i32, ptr %12, align 4
  %31 = load i32, ptr %10, align 4
  %32 = icmp slt i32 %30, %31
  br i1 %32, label %33, label %49

33:                                               ; preds = %29
  %34 = load ptr, ptr %8, align 8
  %35 = load i32, ptr @hf_ieee80211_tag_ext_supp_rates, align 4
  %36 = load ptr, ptr %6, align 8
  %37 = load i32, ptr %12, align 4
  %38 = call ptr @proto_tree_add_item(ptr noundef %34, i32 noundef %35, ptr noundef %36, i32 noundef %37, i32 noundef 1, i32 noundef 0)
  %39 = load ptr, ptr %11, align 8
  %40 = getelementptr inbounds nuw %struct.ieee80211_tagged_field_data, ptr %39, i32 0, i32 3
  %41 = load ptr, ptr %40, align 8
  %42 = load ptr, ptr %6, align 8
  %43 = load i32, ptr %12, align 4
  %44 = call zeroext i8 @tvb_get_uint8(ptr noundef %42, i32 noundef %43)
  %45 = zext i8 %44 to i32
  %46 = call ptr @val_to_str_ext_const(i32 noundef %45, ptr noundef @ieee80211_supported_rates_vals_ext, ptr noundef @.str.9915)
  call void (ptr, ptr, ...) @proto_item_append_text(ptr noundef %41, ptr noundef @.str.9914, ptr noundef %46)
  %47 = load i32, ptr %12, align 4
  %48 = add i32 %47, 1
  store i32 %48, ptr %12, align 4
  br label %29, !llvm.loop !34

49:                                               ; preds = %29
  %50 = load ptr, ptr %11, align 8
  %51 = getelementptr inbounds nuw %struct.ieee80211_tagged_field_data, ptr %50, i32 0, i32 3
  %52 = load ptr, ptr %51, align 8
  call void (ptr, ptr, ...) @proto_item_append_text(ptr noundef %52, ptr noundef @.str.9916)
  %53 = load ptr, ptr %6, align 8
  %54 = call i32 @tvb_captured_length(ptr noundef %53)
  store i32 %54, ptr %5, align 4
  store i32 1, ptr %13, align 4
  br label %55

55:                                               ; preds = %49, %19
  call void @llvm.lifetime.end.p0(i64 4, ptr %12) #19
  call void @llvm.lifetime.end.p0(i64 8, ptr %11) #19
  call void @llvm.lifetime.end.p0(i64 4, ptr %10) #19
  %56 = load i32, ptr %5, align 4
  ret i32 %56
}