; Function Attrs: null_pointer_is_valid sspstrong uwtable
define internal i32 @ieee80211_tag_ext_supp_rates(ptr noundef %0, ptr noundef %1, ptr noundef %2, ptr noundef readonly captures(none) %3) #2 {
  %5 = tail call i32 @tvb_reported_length(ptr noundef %0)
  %6 = icmp slt i32 %5, 1
  br i1 %6, label %8, label %.preheader

.preheader:                                       ; preds = %4
  %7 = getelementptr inbounds nuw i8, ptr %3, i64 24
  br label %12

8:                                                ; preds = %4
  %9 = getelementptr inbounds nuw i8, ptr %3, i64 32
  %10 = load ptr, ptr %9, align 8
  %11 = tail call ptr (ptr, ptr, ptr, ptr, ...) @expert_add_info_format(ptr noundef %1, ptr noundef %10, ptr noundef nonnull @ei_ieee80211_tag_length, ptr noundef nonnull @.str.9913, i32 noundef %5)
  br label %22

12:                                               ; preds = %.preheader, %12
  %.020 = phi i32 [ 0, %.preheader ], [ %19, %12 ]
  %13 = load i32, ptr @hf_ieee80211_tag_ext_supp_rates, align 4
  %14 = tail call ptr @proto_tree_add_item(ptr noundef %2, i32 noundef %13, ptr noundef %0, i32 noundef %.020, i32 noundef 1, i32 noundef 0)
  %15 = load ptr, ptr %7, align 8
  %16 = tail call zeroext i8 @tvb_get_uint8(ptr noundef %0, i32 noundef %.020)
  %17 = zext i8 %16 to i32
  %18 = tail call ptr @val_to_str_ext_const(i32 noundef %17, ptr noundef nonnull @ieee80211_supported_rates_vals_ext, ptr noundef nonnull @.str.9915)
  tail call void (ptr, ptr, ...) @proto_item_append_text(ptr noundef %15, ptr noundef nonnull @.str.9914, ptr noundef %18)
  %19 = add nuw nsw i32 %.020, 1
  %exitcond.not = icmp eq i32 %19, %5
  br i1 %exitcond.not, label %20, label %12, !llvm.loop !113

20:                                               ; preds = %12
  %21 = load ptr, ptr %7, align 8
  tail call void (ptr, ptr, ...) @proto_item_append_text(ptr noundef %21, ptr noundef nonnull @.str.9916)
  br label %22

22:                                               ; preds = %20, %8
  %23 = tail call i32 @tvb_captured_length(ptr noundef %0)
  ret i32 %23
}